; ModuleID = 'source-C-CXX/39/1241.c'
source_filename = "source-C-CXX/39/1241.c"
target datalayout = "e-m:e-p270:32:32-p271:32:32-p272:64:64-i64:64-f80:128-n8:16:32:64-S128"
target triple = "x86_64-pc-linux-gnu"

@.str = private unnamed_addr constant [3 x i8] c"%f\00", align 1
@.str.1 = private unnamed_addr constant [6 x i8] c"%.4f\0A\00", align 1
@.str.2 = private unnamed_addr constant [14 x i8] c"Invalid input\00", align 1

; Function Attrs: nofree nounwind sspstrong uwtable
define dso_local i32 @main() local_unnamed_addr #0 {
  %1 = alloca float, align 4
  %2 = alloca float, align 4
  %3 = alloca float, align 4
  %4 = alloca float, align 4
  %5 = alloca float, align 4
  %6 = bitcast float* %1 to i8*
  call void @llvm.lifetime.start.p0i8(i64 4, i8* nonnull %6) #4
  %7 = bitcast float* %2 to i8*
  call void @llvm.lifetime.start.p0i8(i64 4, i8* nonnull %7) #4
  %8 = bitcast float* %3 to i8*
  call void @llvm.lifetime.start.p0i8(i64 4, i8* nonnull %8) #4
  %9 = bitcast float* %4 to i8*
  call void @llvm.lifetime.start.p0i8(i64 4, i8* nonnull %9) #4
  %10 = bitcast float* %5 to i8*
  call void @llvm.lifetime.start.p0i8(i64 4, i8* nonnull %10) #4
  %11 = call i32 (i8*, ...) @__isoc99_scanf(i8* getelementptr inbounds ([3 x i8], [3 x i8]* @.str, i64 0, i64 0), float* nonnull %1)
  %12 = call i32 (i8*, ...) @__isoc99_scanf(i8* getelementptr inbounds ([3 x i8], [3 x i8]* @.str, i64 0, i64 0), float* nonnull %2)
  %13 = call i32 (i8*, ...) @__isoc99_scanf(i8* getelementptr inbounds ([3 x i8], [3 x i8]* @.str, i64 0, i64 0), float* nonnull %3)
  %14 = call i32 (i8*, ...) @__isoc99_scanf(i8* getelementptr inbounds ([3 x i8], [3 x i8]* @.str, i64 0, i64 0), float* nonnull %4)
  %15 = call i32 (i8*, ...) @__isoc99_scanf(i8* getelementptr inbounds ([3 x i8], [3 x i8]* @.str, i64 0, i64 0), float* nonnull %5)
  %16 = load float, float* %1, align 4, !tbaa !5
  %17 = load float, float* %2, align 4, !tbaa !5
  %18 = fadd float %16, %17
  %19 = load float, float* %3, align 4, !tbaa !5
  %20 = fadd float %18, %19
  %21 = load float, float* %4, align 4, !tbaa !5
  %22 = fadd float %20, %21
  %23 = fmul float %22, 5.000000e-01
  %24 = fsub float %23, %16
  %25 = fsub float %23, %17
  %26 = fmul float %24, %25
  %27 = fsub float %23, %19
  %28 = fmul float %27, %26
  %29 = fsub float %23, %21
  %30 = fmul float %29, %28
  %31 = fpext float %30 to double
  %32 = fmul float %16, %17
  %33 = fmul float %32, %19
  %34 = fmul float %33, %21
  %35 = fpext float %34 to double
  %36 = load float, float* %5, align 4, !tbaa !5
  %37 = fmul float %36, 5.000000e-01
  %38 = fdiv float %37, 1.800000e+02
  %39 = fmul float %38, 1.000000e+02
  %40 = fpext float %39 to double
  %41 = call double @cos(double %40) #4
  %42 = fmul double %41, %35
  %43 = load float, float* %5, align 4, !tbaa !5
  %44 = fmul float %43, 5.000000e-01
  %45 = fdiv float %44, 1.800000e+02
  %46 = fmul float %45, 1.000000e+02
  %47 = fpext float %46 to double
  %48 = call double @cos(double %47) #4
  %49 = fmul double %42, %48
  %50 = fsub double %31, %49
  %51 = call double @sqrt(double %50) #4
  %52 = load float, float* %1, align 4, !tbaa !5
  %53 = fsub float %23, %52
  %54 = load float, float* %2, align 4, !tbaa !5
  %55 = fsub float %23, %54
  %56 = fmul float %53, %55
  %57 = load float, float* %3, align 4, !tbaa !5
  %58 = fsub float %23, %57
  %59 = fmul float %56, %58
  %60 = load float, float* %4, align 4, !tbaa !5
  %61 = fsub float %23, %60
  %62 = fmul float %59, %61
  %63 = fpext float %62 to double
  %64 = fmul float %52, %54
  %65 = fmul float %64, %57
  %66 = fmul float %65, %60
  %67 = fpext float %66 to double
  %68 = load float, float* %5, align 4, !tbaa !5
  %69 = fmul float %68, 5.000000e-01
  %70 = fdiv float %69, 1.800000e+02
  %71 = fmul float %70, 1.000000e+02
  %72 = fpext float %71 to double
  %73 = call double @cos(double %72) #4
  %74 = fmul double %73, %67
  %75 = load float, float* %5, align 4, !tbaa !5
  %76 = fmul float %75, 5.000000e-01
  %77 = fdiv float %76, 1.800000e+02
  %78 = fmul float %77, 1.000000e+02
  %79 = fpext float %78 to double
  %80 = call double @cos(double %79) #4
  %81 = fmul double %74, %80
  %82 = fsub double %63, %81
  %83 = fptrunc double %82 to float
  %84 = fcmp ogt float %83, 0.000000e+00
  br i1 %84, label %85, label %89

85:                                               ; preds = %0
  %86 = fptrunc double %51 to float
  %87 = fpext float %86 to double
  %88 = call i32 (i8*, ...) @printf(i8* nonnull dereferenceable(1) getelementptr inbounds ([6 x i8], [6 x i8]* @.str.1, i64 0, i64 0), double %87)
  br label %91

89:                                               ; preds = %0
  %90 = call i32 (i8*, ...) @printf(i8* nonnull dereferenceable(1) getelementptr inbounds ([14 x i8], [14 x i8]* @.str.2, i64 0, i64 0))
  br label %91

91:                                               ; preds = %89, %85
  call void @llvm.lifetime.end.p0i8(i64 4, i8* nonnull %10) #4
  call void @llvm.lifetime.end.p0i8(i64 4, i8* nonnull %9) #4
  call void @llvm.lifetime.end.p0i8(i64 4, i8* nonnull %8) #4
  call void @llvm.lifetime.end.p0i8(i64 4, i8* nonnull %7) #4
  call void @llvm.lifetime.end.p0i8(i64 4, i8* nonnull %6) #4
  ret i32 0
}

; Function Attrs: argmemonly mustprogress nofree nosync nounwind willreturn
declare void @llvm.lifetime.start.p0i8(i64 immarg, i8* nocapture) #1

; Function Attrs: nofree nounwind
declare noundef i32 @__isoc99_scanf(i8* nocapture noundef readonly, ...) local_unnamed_addr #2

; Function Attrs: mustprogress nofree nounwind willreturn
declare double @sqrt(double) local_unnamed_addr #3

; Function Attrs: mustprogress nofree nounwind willreturn
declare double @cos(double) local_unnamed_addr #3

; Function Attrs: nofree nounwind
declare noundef i32 @printf(i8* nocapture noundef readonly, ...) local_unnamed_addr #2

; Function Attrs: argmemonly mustprogress nofree nosync nounwind willreturn
declare void @llvm.lifetime.end.p0i8(i64 immarg, i8* nocapture) #1


!llvm.module.flags = !{!0, !1, !2, !3}
!llvm.ident = !{!4}

!0 = !{i32 1, !"wchar_size", i32 4}
!1 = !{i32 7, !"PIC Level", i32 2}
!2 = !{i32 7, !"PIE Level", i32 2}
!3 = !{i32 7, !"uwtable", i32 1}
!4 = !{!"clang version 13.0.0"}
!5 = !{!6, !6, i64 0}
!6 = !{!"float", !7, i64 0}
!7 = !{!"omnipotent char", !8, i64 0}
!8 = !{!"Simple C/C++ TBAA"}
